target datalayout = "e-m:e-p270:32:32-p271:32:32-p272:64:64-i64:64-i128:128-f80:128-n8:16:32:64-S128"
target triple = "x86_64-pc-linux-gnu"

%struct.FunctionCallInfoBaseData = type { ptr, ptr, ptr, i32, i8, i16, [0 x %struct.NullableDatum] }
%struct.NullableDatum = type { i64, i8 }
%struct.nameData = type { [64 x i8] }
%struct.ReplicationSlot = type { i8, i8, i32, i8, i8, i32, i32, %struct.ReplicationSlotPersistentData, %struct.LWLock, %struct.ConditionVariable, i32, i64, i64, i64, i64, i64 }
%struct.ReplicationSlotPersistentData = type { %struct.nameData, i32, i32, i32, i32, i64, i32, i64, i64, i8, %struct.nameData, i8, i8 }
%struct.LWLock = type { i16, %struct.pg_atomic_uint32, %struct.proclist_head }
%struct.pg_atomic_uint32 = type { i32 }
%struct.proclist_head = type { i32, i32 }
%struct.ConditionVariable = type { i8, %struct.proclist_head }
%struct.HeapTupleData = type { i32, %struct.ItemPointerData, i32, ptr }
%struct.ItemPointerData = type { %struct.BlockIdData, i16 }
%struct.BlockIdData = type { i16, i16 }

@.str = private unnamed_addr constant [31 x i8] c"return type must be a row type\00", align 1
@.str.1 = private unnamed_addr constant [12 x i8] c"slotfuncs.c\00", align 1
@__func__.pg_create_physical_replication_slot = private unnamed_addr constant [36 x i8] c"pg_create_physical_replication_slot\00", align 1
@MyReplicationSlot = external global ptr, align 8

; Function Attrs: inlinehint nounwind uwtable
define internal i64 @PointerGetDatum(ptr noundef %0) #2 {
  %2 = alloca ptr, align 8
  store ptr %0, ptr %2, align 8
  %3 = load ptr, ptr %2, align 8
  %4 = ptrtoint ptr %3 to i64
  ret i64 %4
}

; Function Attrs: inlinehint nounwind uwtable
define internal i64 @Int64GetDatum(i64 noundef %0) #2 {
  %2 = alloca i64, align 8
  store i64 %0, ptr %2, align 8
  %3 = load i64, ptr %2, align 8
  ret i64 %3
}

; Function Attrs: inlinehint nounwind uwtable
define internal i64 @CStringGetDatum(ptr noundef %0) #2 {
  %2 = alloca ptr, align 8
  store ptr %0, ptr %2, align 8
  %3 = load ptr, ptr %2, align 8
  %4 = call i64 @PointerGetDatum(ptr noundef %3)
  ret i64 %4
}

; Function Attrs: inlinehint nounwind uwtable
define internal ptr @DatumGetPointer(i64 noundef %0) #2 {
  %2 = alloca i64, align 8
  store i64 %0, ptr %2, align 8
  %3 = load i64, ptr %2, align 8
  %4 = inttoptr i64 %3 to ptr
  ret ptr %4
}

; Function Attrs: inlinehint nounwind uwtable
define internal i64 @HeapTupleGetDatum(ptr noundef %0) #2 {
  %2 = alloca ptr, align 8
  store ptr %0, ptr %2, align 8
  %3 = load ptr, ptr %2, align 8
  %4 = getelementptr inbounds nuw %struct.HeapTupleData, ptr %3, i32 0, i32 3
  %5 = load ptr, ptr %4, align 8
  %6 = call i64 @HeapTupleHeaderGetDatum(ptr noundef %5)
  ret i64 %6
}

; Function Attrs: inlinehint nounwind uwtable
define internal i64 @LSNGetDatum(i64 noundef %0) #2 {
  %2 = alloca i64, align 8
  store i64 %0, ptr %2, align 8
  %3 = load i64, ptr %2, align 8
  %4 = call i64 @Int64GetDatum(i64 noundef %3)
  ret i64 %4
}

; Function Attrs: inlinehint nounwind uwtable
define internal i64 @NameGetDatum(ptr noundef %0) #2 {
  %2 = alloca ptr, align 8
  store ptr %0, ptr %2, align 8
  %3 = load ptr, ptr %2, align 8
  %4 = getelementptr inbounds nuw %struct.nameData, ptr %3, i32 0, i32 0
  %5 = getelementptr inbounds [64 x i8], ptr %4, i64 0, i64 0
  %6 = call i64 @CStringGetDatum(ptr noundef %5)
  ret i64 %6
}

; Function Attrs: nounwind uwtable
define internal void @create_physical_replication_slot(ptr noundef %0, i1 noundef zeroext %1, i1 noundef zeroext %2, i64 noundef %3) #0 {
  %5 = alloca ptr, align 8
  %6 = alloca i8, align 1
  %7 = alloca i8, align 1
  %8 = alloca i64, align 8
  store ptr %0, ptr %5, align 8
  %9 = zext i1 %1 to i8
  store i8 %9, ptr %6, align 1
  %10 = zext i1 %2 to i8
  store i8 %10, ptr %7, align 1
  store i64 %3, ptr %8, align 8
  %11 = load ptr, ptr %5, align 8
  %12 = load i8, ptr %7, align 1, !range !4, !noundef !5
  %13 = trunc i8 %12 to i1
  %14 = select i1 %13, i32 2, i32 0
  call void @ReplicationSlotCreate(ptr noundef %11, i1 noundef zeroext false, i32 noundef %14, i1 noundef zeroext false, i1 noundef zeroext false, i1 noundef zeroext false)
  %15 = load i8, ptr %6, align 1, !range !4, !noundef !5
  %16 = trunc i8 %15 to i1
  br i1 %16, label %17, label %27

17:                                               ; preds = %4
  %18 = load i64, ptr %8, align 8
  %19 = icmp eq i64 %18, 0
  br i1 %19, label %20, label %21

20:                                               ; preds = %17
  call void @ReplicationSlotReserveWal()
  br label %26

21:                                               ; preds = %17
  %22 = load i64, ptr %8, align 8
  %23 = load ptr, ptr @MyReplicationSlot, align 8
  %24 = getelementptr inbounds nuw %struct.ReplicationSlot, ptr %23, i32 0, i32 7
  %25 = getelementptr inbounds nuw %struct.ReplicationSlotPersistentData, ptr %24, i32 0, i32 5
  store i64 %22, ptr %25, align 8
  br label %26

26:                                               ; preds = %21, %20
  call void @ReplicationSlotMarkDirty()
  call void @ReplicationSlotSave()
  br label %27

27:                                               ; preds = %26, %4
  ret void
}

; Function Attrs: inlinehint nounwind uwtable
define internal zeroext i1 @DatumGetBool(i64 noundef %0) #2 {
  %2 = alloca i64, align 8
  store i64 %0, ptr %2, align 8
  %3 = load i64, ptr %2, align 8
  %4 = icmp ne i64 %3, 0
  ret i1 %4
}

; Function Attrs: inlinehint nounwind uwtable
define internal ptr @DatumGetName(i64 noundef %0) #2 {
  %2 = alloca i64, align 8
  store i64 %0, ptr %2, align 8
  %3 = load i64, ptr %2, align 8
  %4 = call ptr @DatumGetPointer(i64 noundef %3)
  ret ptr %4
}

; Function Attrs: nounwind uwtable
define dso_local i64 @pg_create_physical_replication_slot(ptr noundef %0) #0 {
  %2 = alloca ptr, align 8
  %3 = alloca ptr, align 8
  %4 = alloca i8, align 1
  %5 = alloca i8, align 1
  %6 = alloca [2 x i64], align 16
  %7 = alloca [2 x i8], align 1
  %8 = alloca ptr, align 8
  %9 = alloca ptr, align 8
  %10 = alloca i64, align 8
  store ptr %0, ptr %2, align 8
  call void @llvm.lifetime.start.p0(i64 8, ptr %3) #8
  %11 = load ptr, ptr %2, align 8
  %12 = getelementptr inbounds nuw %struct.FunctionCallInfoBaseData, ptr %11, i32 0, i32 6
  %13 = getelementptr inbounds [0 x %struct.NullableDatum], ptr %12, i64 0, i64 0
  %14 = getelementptr inbounds nuw %struct.NullableDatum, ptr %13, i32 0, i32 0
  %15 = load i64, ptr %14, align 8
  %16 = call ptr @DatumGetName(i64 noundef %15)
  store ptr %16, ptr %3, align 8
  call void @llvm.lifetime.start.p0(i64 1, ptr %4) #8
  %17 = load ptr, ptr %2, align 8
  %18 = getelementptr inbounds nuw %struct.FunctionCallInfoBaseData, ptr %17, i32 0, i32 6
  %19 = getelementptr inbounds [0 x %struct.NullableDatum], ptr %18, i64 0, i64 1
  %20 = getelementptr inbounds nuw %struct.NullableDatum, ptr %19, i32 0, i32 0
  %21 = load i64, ptr %20, align 8
  %22 = call zeroext i1 @DatumGetBool(i64 noundef %21)
  %23 = zext i1 %22 to i8
  store i8 %23, ptr %4, align 1
  call void @llvm.lifetime.start.p0(i64 1, ptr %5) #8
  %24 = load ptr, ptr %2, align 8
  %25 = getelementptr inbounds nuw %struct.FunctionCallInfoBaseData, ptr %24, i32 0, i32 6
  %26 = getelementptr inbounds [0 x %struct.NullableDatum], ptr %25, i64 0, i64 2
  %27 = getelementptr inbounds nuw %struct.NullableDatum, ptr %26, i32 0, i32 0
  %28 = load i64, ptr %27, align 8
  %29 = call zeroext i1 @DatumGetBool(i64 noundef %28)
  %30 = zext i1 %29 to i8
  store i8 %30, ptr %5, align 1
  call void @llvm.lifetime.start.p0(i64 16, ptr %6) #8
  call void @llvm.lifetime.start.p0(i64 2, ptr %7) #8
  call void @llvm.lifetime.start.p0(i64 8, ptr %8) #8
  call void @llvm.lifetime.start.p0(i64 8, ptr %9) #8
  call void @llvm.lifetime.start.p0(i64 8, ptr %10) #8
  %31 = load ptr, ptr %2, align 8
  %32 = call i32 @get_call_result_type(ptr noundef %31, ptr noundef null, ptr noundef %8)
  %33 = icmp ne i32 %32, 1
  br i1 %33, label %34, label %45

34:                                               ; preds = %1
  br label %35

35:                                               ; preds = %34
  br i1 true, label %36, label %38

36:                                               ; preds = %35
  %37 = call zeroext i1 @errstart_cold(i32 noundef 21, ptr noundef null) #9
  br i1 %37, label %40, label %42

38:                                               ; preds = %35
  %39 = call zeroext i1 @errstart(i32 noundef 21, ptr noundef null)
  br i1 %39, label %40, label %42

40:                                               ; preds = %38, %36
  %41 = call i32 (ptr, ...) @errmsg_internal(ptr noundef @.str)
  call void @errfinish(ptr noundef @.str.1, i32 noundef 77, ptr noundef @__func__.pg_create_physical_replication_slot)
  br label %42

42:                                               ; preds = %40, %38, %36
  unreachable

43:                                               ; No predecessors!
  br label %44

44:                                               ; preds = %43
  br label %45

45:                                               ; preds = %44, %1
  call void @CheckSlotPermissions()
  call void @CheckSlotRequirements()
  %46 = load ptr, ptr %3, align 8
  %47 = getelementptr inbounds nuw %struct.nameData, ptr %46, i32 0, i32 0
  %48 = getelementptr inbounds [64 x i8], ptr %47, i64 0, i64 0
  %49 = load i8, ptr %4, align 1, !range !4, !noundef !5
  %50 = trunc i8 %49 to i1
  %51 = load i8, ptr %5, align 1, !range !4, !noundef !5
  %52 = trunc i8 %51 to i1
  call void @create_physical_replication_slot(ptr noundef %48, i1 noundef zeroext %50, i1 noundef zeroext %52, i64 noundef 0)
  %53 = load ptr, ptr @MyReplicationSlot, align 8
  %54 = getelementptr inbounds nuw %struct.ReplicationSlot, ptr %53, i32 0, i32 7
  %55 = getelementptr inbounds nuw %struct.ReplicationSlotPersistentData, ptr %54, i32 0, i32 0
  %56 = call i64 @NameGetDatum(ptr noundef %55)
  %57 = getelementptr inbounds [2 x i64], ptr %6, i64 0, i64 0
  store i64 %56, ptr %57, align 16
  %58 = getelementptr inbounds [2 x i8], ptr %7, i64 0, i64 0
  store i8 0, ptr %58, align 1
  %59 = load i8, ptr %4, align 1, !range !4, !noundef !5
  %60 = trunc i8 %59 to i1
  br i1 %60, label %61, label %69

61:                                               ; preds = %45
  %62 = load ptr, ptr @MyReplicationSlot, align 8
  %63 = getelementptr inbounds nuw %struct.ReplicationSlot, ptr %62, i32 0, i32 7
  %64 = getelementptr inbounds nuw %struct.ReplicationSlotPersistentData, ptr %63, i32 0, i32 5
  %65 = load i64, ptr %64, align 8
  %66 = call i64 @LSNGetDatum(i64 noundef %65)
  %67 = getelementptr inbounds [2 x i64], ptr %6, i64 0, i64 1
  store i64 %66, ptr %67, align 8
  %68 = getelementptr inbounds [2 x i8], ptr %7, i64 0, i64 1
  store i8 0, ptr %68, align 1
  br label %71

69:                                               ; preds = %45
  %70 = getelementptr inbounds [2 x i8], ptr %7, i64 0, i64 1
  store i8 1, ptr %70, align 1
  br label %71

71:                                               ; preds = %69, %61
  %72 = load ptr, ptr %8, align 8
  %73 = getelementptr inbounds [2 x i64], ptr %6, i64 0, i64 0
  %74 = getelementptr inbounds [2 x i8], ptr %7, i64 0, i64 0
  %75 = call ptr @heap_form_tuple(ptr noundef %72, ptr noundef %73, ptr noundef %74)
  store ptr %75, ptr %9, align 8
  %76 = load ptr, ptr %9, align 8
  %77 = call i64 @HeapTupleGetDatum(ptr noundef %76)
  store i64 %77, ptr %10, align 8
  call void @ReplicationSlotRelease()
  %78 = load i64, ptr %10, align 8
  call void @llvm.lifetime.end.p0(i64 8, ptr %10) #8
  call void @llvm.lifetime.end.p0(i64 8, ptr %9) #8
  call void @llvm.lifetime.end.p0(i64 8, ptr %8) #8
  call void @llvm.lifetime.end.p0(i64 2, ptr %7) #8
  call void @llvm.lifetime.end.p0(i64 16, ptr %6) #8
  call void @llvm.lifetime.end.p0(i64 1, ptr %5) #8
  call void @llvm.lifetime.end.p0(i64 1, ptr %4) #8
  call void @llvm.lifetime.end.p0(i64 8, ptr %3) #8
  ret i64 %78
}