; Function Attrs: nounwind uwtable
define dso_local i64 @pg_create_physical_replication_slot(ptr noundef %0) local_unnamed_addr #0 {
  %2 = alloca [2 x i64], align 16
  %3 = alloca [2 x i8], align 1
  %4 = alloca ptr, align 8
  %5 = getelementptr inbounds nuw i8, ptr %0, i64 32
  %6 = load i64, ptr %5, align 8
  %7 = getelementptr inbounds nuw i8, ptr %0, i64 48
  %8 = load i64, ptr %7, align 8
  %9 = getelementptr inbounds nuw i8, ptr %0, i64 64
  %10 = load i64, ptr %9, align 8
  call void @llvm.lifetime.start.p0(i64 16, ptr nonnull %2) #9
  call void @llvm.lifetime.start.p0(i64 2, ptr nonnull %3) #9
  call void @llvm.lifetime.start.p0(i64 8, ptr nonnull %4) #9
  %11 = call i32 @get_call_result_type(ptr noundef %0, ptr noundef null, ptr noundef nonnull %4) #9
  %.not = icmp eq i32 %11, 1
  br i1 %.not, label %15, label %12

12:                                               ; preds = %1
  %13 = call zeroext i1 @errstart_cold(i32 noundef 21, ptr noundef null) #10
  call void @llvm.assume(i1 %13)
  %14 = call i32 (ptr, ...) @errmsg_internal(ptr noundef nonnull @.str) #9
  call void @errfinish(ptr noundef nonnull @.str.1, i32 noundef 77, ptr noundef nonnull @__func__.pg_create_physical_replication_slot) #9
  unreachable

15:                                               ; preds = %1
  %.not10 = icmp eq i64 %10, 0
  %.not9 = icmp eq i64 %8, 0
  %16 = inttoptr i64 %6 to ptr
  call void @CheckSlotPermissions() #9
  call void @CheckSlotRequirements() #9
  %17 = select i1 %.not10, i32 0, i32 2
  call void @ReplicationSlotCreate(ptr noundef %16, i1 noundef zeroext false, i32 noundef %17, i1 noundef zeroext false, i1 noundef zeroext false, i1 noundef zeroext false) #9
  br i1 %.not9, label %23, label %18

18:                                               ; preds = %15
  call void @ReplicationSlotReserveWal() #9
  call void @ReplicationSlotMarkDirty() #9
  call void @ReplicationSlotSave() #9
  %19 = load ptr, ptr @MyReplicationSlot, align 8
  %20 = getelementptr inbounds nuw i8, ptr %19, i64 104
  %21 = load i64, ptr %20, align 8
  %22 = getelementptr inbounds nuw i8, ptr %2, i64 8
  store i64 %21, ptr %22, align 8
  br label %25

23:                                               ; preds = %15
  %24 = load ptr, ptr @MyReplicationSlot, align 8
  br label %25

25:                                               ; preds = %23, %18
  %.pn = phi ptr [ %24, %23 ], [ %19, %18 ]
  %.sink = phi i8 [ 1, %23 ], [ 0, %18 ]
  %.sink11.in = getelementptr inbounds nuw i8, ptr %.pn, i64 24
  %.sink11 = ptrtoint ptr %.sink11.in to i64
  store i64 %.sink11, ptr %2, align 16
  store i8 0, ptr %3, align 1
  %26 = getelementptr inbounds nuw i8, ptr %3, i64 1
  store i8 %.sink, ptr %26, align 1
  %27 = load ptr, ptr %4, align 8
  %28 = call ptr @heap_form_tuple(ptr noundef %27, ptr noundef nonnull %2, ptr noundef nonnull %3) #9
  %29 = getelementptr i8, ptr %28, i64 16
  %.val = load ptr, ptr %29, align 8
  %30 = call i64 @HeapTupleHeaderGetDatum(ptr noundef %.val) #9
  call void @ReplicationSlotRelease() #9
  call void @llvm.lifetime.end.p0(i64 8, ptr nonnull %4) #9
  call void @llvm.lifetime.end.p0(i64 2, ptr nonnull %3) #9
  call void @llvm.lifetime.end.p0(i64 16, ptr nonnull %2) #9
  ret i64 %30
}